target datalayout = "e-m:e-p270:32:32-p271:32:32-p272:64:64-i64:64-i128:128-f80:128-n8:16:32:64-S128"
target triple = "x86_64-pc-linux-gnu"

%struct._object = type { %union.anon, ptr }
%union.anon = type { i64 }
%struct.PyASCIIObject = type { %struct._object, i64, i64, %struct.anon.1 }
%struct.anon.1 = type { i16, i16 }
%struct.anon.0 = type { i32, i32 }

@.str.1 = private unnamed_addr constant [8 x i8] c"replace\00", align 1

; Function Attrs: alwaysinline nounwind uwtable
define internal i32 @_Py_IsImmortal(ptr noundef %0) #5 {
  %2 = alloca ptr, align 8
  store ptr %0, ptr %2, align 8, !tbaa !19
  %3 = load ptr, ptr %2, align 8, !tbaa !19
  %4 = getelementptr inbounds nuw %struct._object, ptr %3, i32 0, i32 0
  %5 = getelementptr inbounds nuw %struct.anon.0, ptr %4, i32 0, i32 0
  %6 = load i32, ptr %5, align 8, !tbaa !23
  %7 = icmp slt i32 %6, 0
  %8 = zext i1 %7 to i32
  ret i32 %8
}

; Function Attrs: alwaysinline nounwind uwtable
define internal void @Py_DECREF(ptr noundef %0) #5 {
  %2 = alloca ptr, align 8
  store ptr %0, ptr %2, align 8, !tbaa !19
  %3 = load ptr, ptr %2, align 8, !tbaa !19
  %4 = call i32 @_Py_IsImmortal(ptr noundef %3)
  %5 = icmp ne i32 %4, 0
  br i1 %5, label %6, label %7

6:                                                ; preds = %1
  br label %16

7:                                                ; preds = %1
  %8 = load ptr, ptr %2, align 8, !tbaa !19
  %9 = getelementptr inbounds nuw %struct._object, ptr %8, i32 0, i32 0
  %10 = getelementptr inbounds nuw %struct.anon.0, ptr %9, i32 0, i32 0
  %11 = load i32, ptr %10, align 8, !tbaa !23
  %12 = add i32 %11, -1
  store i32 %12, ptr %10, align 8, !tbaa !23
  %13 = icmp eq i32 %12, 0
  br i1 %13, label %14, label %16

14:                                               ; preds = %7
  %15 = load ptr, ptr %2, align 8, !tbaa !19
  call void @_Py_Dealloc(ptr noundef %15)
  br label %16

16:                                               ; preds = %6, %14, %7
  ret void
}

; Function Attrs: inlinehint nounwind uwtable
define internal i64 @PyUnicode_GET_LENGTH(ptr noundef %0) #4 {
  %2 = alloca ptr, align 8
  store ptr %0, ptr %2, align 8, !tbaa !19
  %3 = load ptr, ptr %2, align 8, !tbaa !19
  %4 = getelementptr inbounds nuw %struct.PyASCIIObject, ptr %3, i32 0, i32 1
  %5 = load i64, ptr %4, align 8, !tbaa !26
  ret i64 %5
}

; Function Attrs: nounwind uwtable
define hidden i64 @_PyPegen_byte_offset_to_character_offset_raw(ptr noundef %0, i64 noundef %1) #0 {
  %3 = alloca i64, align 8
  %4 = alloca ptr, align 8
  %5 = alloca i64, align 8
  %6 = alloca i64, align 8
  %7 = alloca ptr, align 8
  %8 = alloca i32, align 4
  %9 = alloca i64, align 8
  store ptr %0, ptr %4, align 8, !tbaa !21
  store i64 %1, ptr %5, align 8, !tbaa !20
  call void @llvm.lifetime.start.p0(i64 8, ptr %6) #10
  %10 = load ptr, ptr %4, align 8, !tbaa !21
  %11 = call i64 @strlen(ptr noundef %10) #11
  store i64 %11, ptr %6, align 8, !tbaa !20
  %12 = load i64, ptr %5, align 8, !tbaa !20
  %13 = load i64, ptr %6, align 8, !tbaa !20
  %14 = add i64 %13, 1
  %15 = icmp sgt i64 %12, %14
  br i1 %15, label %16, label %19

16:                                               ; preds = %2
  %17 = load i64, ptr %6, align 8, !tbaa !20
  %18 = add i64 %17, 1
  store i64 %18, ptr %5, align 8, !tbaa !20
  br label %19

19:                                               ; preds = %16, %2
  call void @llvm.lifetime.start.p0(i64 8, ptr %7) #10
  %20 = load ptr, ptr %4, align 8, !tbaa !21
  %21 = load i64, ptr %5, align 8, !tbaa !20
  %22 = call ptr @PyUnicode_DecodeUTF8(ptr noundef %20, i64 noundef %21, ptr noundef @.str.1)
  store ptr %22, ptr %7, align 8, !tbaa !19
  %23 = load ptr, ptr %7, align 8, !tbaa !19
  %24 = icmp ne ptr %23, null
  br i1 %24, label %26, label %25

25:                                               ; preds = %19
  store i64 -1, ptr %3, align 8
  store i32 1, ptr %8, align 4
  br label %31

26:                                               ; preds = %19
  call void @llvm.lifetime.start.p0(i64 8, ptr %9) #10
  %27 = load ptr, ptr %7, align 8, !tbaa !19
  %28 = call i64 @PyUnicode_GET_LENGTH(ptr noundef %27)
  store i64 %28, ptr %9, align 8, !tbaa !20
  %29 = load ptr, ptr %7, align 8, !tbaa !19
  call void @Py_DECREF(ptr noundef %29)
  %30 = load i64, ptr %9, align 8, !tbaa !20
  store i64 %30, ptr %3, align 8
  store i32 1, ptr %8, align 4
  call void @llvm.lifetime.end.p0(i64 8, ptr %9) #10
  br label %31

31:                                               ; preds = %26, %25
  call void @llvm.lifetime.end.p0(i64 8, ptr %7) #10
  call void @llvm.lifetime.end.p0(i64 8, ptr %6) #10
  %32 = load i64, ptr %3, align 8
  ret i64 %32
}

; Function Attrs: nounwind uwtable
define hidden i64 @_PyPegen_byte_offset_to_character_offset(ptr noundef %0, i64 noundef %1) #0 {
  %3 = alloca i64, align 8
  %4 = alloca ptr, align 8
  %5 = alloca i64, align 8
  %6 = alloca ptr, align 8
  %7 = alloca i32, align 4
  store ptr %0, ptr %4, align 8, !tbaa !19
  store i64 %1, ptr %5, align 8, !tbaa !20
  call void @llvm.lifetime.start.p0(i64 8, ptr %6) #10
  %8 = load ptr, ptr %4, align 8, !tbaa !19
  %9 = call ptr @PyUnicode_AsUTF8(ptr noundef %8)
  store ptr %9, ptr %6, align 8, !tbaa !21
  %10 = load ptr, ptr %6, align 8, !tbaa !21
  %11 = icmp ne ptr %10, null
  br i1 %11, label %13, label %12

12:                                               ; preds = %2
  store i64 -1, ptr %3, align 8
  store i32 1, ptr %7, align 4
  br label %17

13:                                               ; preds = %2
  %14 = load ptr, ptr %6, align 8, !tbaa !21
  %15 = load i64, ptr %5, align 8, !tbaa !20
  %16 = call i64 @_PyPegen_byte_offset_to_character_offset_raw(ptr noundef %14, i64 noundef %15)
  store i64 %16, ptr %3, align 8
  store i32 1, ptr %7, align 4
  br label %17

17:                                               ; preds = %13, %12
  call void @llvm.lifetime.end.p0(i64 8, ptr %6) #10
  %18 = load i64, ptr %3, align 8
  ret i64 %18
}