; Function Attrs: nounwind uwtable
define hidden i64 @_PyPegen_byte_offset_to_character_offset(ptr noundef %0, i64 noundef %1) local_unnamed_addr #1 {
  %3 = tail call ptr @PyUnicode_AsUTF8(ptr noundef %0) #13
  %.not = icmp eq ptr %3, null
  br i1 %.not, label %_PyPegen_byte_offset_to_character_offset_raw.exit, label %4

4:                                                ; preds = %2
  %5 = tail call i64 @strlen(ptr noundef nonnull dereferenceable(1) %3) #14
  %6 = add i64 %5, 1
  %spec.select.i = tail call i64 @llvm.smin.i64(i64 %1, i64 %6)
  %7 = tail call ptr @PyUnicode_DecodeUTF8(ptr noundef nonnull %3, i64 noundef %spec.select.i, ptr noundef nonnull @.str.1) #13
  %.not.i = icmp eq ptr %7, null
  br i1 %.not.i, label %_PyPegen_byte_offset_to_character_offset_raw.exit, label %8

8:                                                ; preds = %4
  %9 = getelementptr i8, ptr %7, i64 16
  %.val.i = load i64, ptr %9, align 8, !tbaa !22
  %10 = load i32, ptr %7, align 8, !tbaa !18
  %.not.i.i = icmp sgt i32 %10, -1
  br i1 %.not.i.i, label %11, label %_PyPegen_byte_offset_to_character_offset_raw.exit

11:                                               ; preds = %8
  %12 = add nsw i32 %10, -1
  store i32 %12, ptr %7, align 8, !tbaa !18
  %13 = icmp eq i32 %12, 0
  br i1 %13, label %14, label %_PyPegen_byte_offset_to_character_offset_raw.exit

14:                                               ; preds = %11
  tail call void @_Py_Dealloc(ptr noundef nonnull %7) #13
  br label %_PyPegen_byte_offset_to_character_offset_raw.exit

_PyPegen_byte_offset_to_character_offset_raw.exit: ; preds = %14, %11, %8, %4, %2
  %.0 = phi i64 [ -1, %2 ], [ -1, %4 ], [ %.val.i, %8 ], [ %.val.i, %11 ], [ %.val.i, %14 ]
  ret i64 %.0
}